(dp1
S'output'
p2
S"<type 'exceptions.SyntaxError'> invalid table or field name: nodeslist: reference node"
p3
sS'layer'
p4
S'/Users/jean-paulmccoy/web2py/applications/dynalog/models/db.py'
p5
sS'code'
p6
S"db = DAL('sqlite://storage.sqlite')\n\nfrom gluon.tools import *\nauth = Auth(db)\nauth.define_tables()\ncrud = Crud(db)\n\ndb.define_table('thread',\n    Field('title'),\n    Field('type'),\n    Field('nodes' 'list: reference node'),\n    Field('rooted_on', 'datetime', default=request.now),\n    Field('created_by', 'reference auth_user', default=auth.user_id),\n    format='%(title)s')\n\ndb.define_table('node',\n    Field('owner_id' 'reference thread'),\n    Field('owner_id' 'reference node'),\n    Field('title'),\n    Field('relation'),\n    Field('body', 'text'),\n    Field('root' 'list: reference thread'),\n    Field('parent' 'list: reference node'),\n    Field('spawn' 'list: reference node'),\n    Field('created_on', 'datetime', default=request.now), \n    Field('created_by', 'reference auth_user', default=auth.user_id),\n    format='%(title)s')\n\ndb.define_table('insight',\n    Field('node_id', 'reference_node') ,   \n    Field('generaton', 'integer'),\n    Field('subject'),\n    Field('body', 'text'),\n    Field('created_on', 'datetime', default=request.now), \n    Field('created_by', 'reference auth_user', default=auth.user_id))\n\ndb.define_table('spawn',\n    Field('node_id', 'reference page'),\n    Field('body', 'text'),\n    Field('created_on', 'datetime', default=request.now), \n    Field('created_by', 'reference auth_user', default=auth.user_id))\n\ndb.define_table('document',\n    Field('page_id', 'reference page'),\n    Field('name'),\n    Field('file', 'upload'),\n    Field('created_on', 'datetime', default=request.now), \n    Field('created_by', 'reference auth_user', default=auth.user_id), \n    format='%(name)s')\n\ndb.node.title.requires = IS_NOT_IN_DB(db, 'node.title')\ndb.node.body.requires = IS_NOT_EMPTY()\ndb.node.created_by.readable = True\ndb.node.created_by.writable = False\ndb.node.created_on.readable = True\ndb.node.created_on.writable = False\n\ndb.insight.body.requires = IS_NOT_EMPTY()\ndb.insight.node_id.readable = db.insight.node_id.writable = False\ndb.insight.created_by.readable = db.insight.created_by.writable = False\ndb.insight.created_on.readable = db.insight.created_on.writable = False\n\ndb.spawn.body.requires = IS_NOT_EMPTY()\ndb.spawn.node_id.readable = db.spawn.node_id.writable = False\ndb.spawn.created_by.readable = db.spawn.created_by.writable = False\ndb.spawn.created_on.readable = db.spawn.created_on.writable = False\n\ndb.document.name.requires = IS_NOT_IN_DB(db, 'document.name')\ndb.document.page_id.readable = db.document.page_id.writable = False\ndb.document.created_by.readable = db.document.created_by.writable = False\ndb.document.created_on.readable = db.document.created_on.writable = False\n"
p7
sS'snapshot'
p8
(dp9
S'exception'
p10
(dp11
S'__getslice__'
p12
S"<method-wrapper '__getslice__' of exceptions.SyntaxError object>"
p13
sS'text'
p14
S'None'
p15
sS'__str__'
p16
S"<method-wrapper '__str__' of exceptions.SyntaxError object>"
p17
sS'__reduce__'
p18
S'<built-in method __reduce__ of exceptions.SyntaxError object>'
p19
sS'__dict__'
p20
S'{}'
p21
sS'__sizeof__'
p22
S'<built-in method __sizeof__ of exceptions.SyntaxError object>'
p23
sS'__init__'
p24
S"<method-wrapper '__init__' of exceptions.SyntaxError object>"
p25
sS'__setattr__'
p26
S"<method-wrapper '__setattr__' of exceptions.SyntaxError object>"
p27
sS'__reduce_ex__'
p28
S'<built-in method __reduce_ex__ of exceptions.SyntaxError object>'
p29
sS'__new__'
p30
S'<built-in method __new__ of type object>'
p31
sS'__format__'
p32
S'<built-in method __format__ of exceptions.SyntaxError object>'
p33
sS'__class__'
p34
S"<type 'exceptions.SyntaxError'>"
p35
sS'filename'
p36
S'None'
p37
sS'lineno'
p38
S'None'
p39
sS'msg'
p40
S"'invalid table or field name: nodeslist: reference node'"
p41
sS'__doc__'
p42
S"'Invalid syntax.'"
p43
sS'__getitem__'
p44
S"<method-wrapper '__getitem__' of exceptions.SyntaxError object>"
p45
sS'__setstate__'
p46
S'<built-in method __setstate__ of exceptions.SyntaxError object>'
p47
sS'__getattribute__'
p48
S"<method-wrapper '__getattribute__' of exceptions.SyntaxError object>"
p49
sS'print_file_and_line'
p50
S'None'
p51
sS'args'
p52
S"('invalid table or field name: nodeslist: reference node',)"
p53
sS'__subclasshook__'
p54
S'<built-in method __subclasshook__ of type object>'
p55
sS'offset'
p56
S'None'
p57
sS'__unicode__'
p58
S'<built-in method __unicode__ of exceptions.SyntaxError object>'
p59
sS'__delattr__'
p60
S"<method-wrapper '__delattr__' of exceptions.SyntaxError object>"
p61
sS'__repr__'
p62
S"<method-wrapper '__repr__' of exceptions.SyntaxError object>"
p63
sS'__hash__'
p64
S"<method-wrapper '__hash__' of exceptions.SyntaxError object>"
p65
ssS'evalue'
p66
S'invalid table or field name: nodeslist: reference node'
p67
sS'request'
p68
cgluon.html
XML_unpickle
p69
(S's\xc0Z\x00\x00<div><table><tr><td style="font-weight:bold;vertical-align:top;">ajax</td><td style="vertical-align:top;">:</td><td><div>False</div></td></tr><tr><td style="font-weight:bold;vertical-align:top;">application</td><td style="vertical-align:top;">:</td><td><div>dynalog</div></td></tr><tr><td style="font-weight:bold;vertical-align:top;">args</td><td style="vertical-align:top;">:</td><td><div><table></table></div></td></tr><tr><td style="font-weight:bold;vertical-align:top;">cid</td><td style="vertical-align:top;">:</td><td><div>None</div></td></tr><tr><td style="font-weight:bold;vertical-align:top;">client</td><td style="vertical-align:top;">:</td><td><div>127.0.0.1</div></td></tr><tr><td style="font-weight:bold;vertical-align:top;">controller</td><td style="vertical-align:top;">:</td><td><div>default</div></td></tr><tr><td style="font-weight:bold;vertical-align:top;">cookies</td><td style="vertical-align:top;">:</td><td><div><table><tr><td style="font-weight:bold;vertical-align:top;">session_id_admin</td><td style="vertical-align:top;">:</td><td><div>127.0.0.1-c756ff97-7200-4506-841a-76fc99388c68<table><tr><td style="font-weight:bold;vertical-align:top;">comment</td><td style="vertical-align:top;">:</td><td><div></div></td></tr><tr><td style="font-weight:bold;vertical-align:top;">domain</td><td style="vertical-align:top;">:</td><td><div></div></td></tr><tr><td style="font-weight:bold;vertical-align:top;">expires</td><td style="vertical-align:top;">:</td><td><div></div></td></tr><tr><td style="font-weight:bold;vertical-align:top;">httponly</td><td style="vertical-align:top;">:</td><td><div></div></td></tr><tr><td style="font-weight:bold;vertical-align:top;">max-age</td><td style="vertical-align:top;">:</td><td><div></div></td></tr><tr><td style="font-weight:bold;vertical-align:top;">path</td><td style="vertical-align:top;">:</td><td><div></div></td></tr><tr><td style="font-weight:bold;vertical-align:top;">secure</td><td style="vertical-align:top;">:</td><td><div></div></td></tr><tr><td style="font-weight:bold;vertical-align:top;">version</td><td style="vertical-align:top;">:</td><td><div></div></td></tr></table></div></td></tr><tr><td style="font-weight:bold;vertical-align:top;">session_id_thinker</td><td style="vertical-align:top;">:</td><td><div>127.0.0.1-c924d9fc-fc52-4144-a3ec-da37c4f5300d<table><tr><td style="font-weight:bold;vertical-align:top;">comment</td><td style="vertical-align:top;">:</td><td><div></div></td></tr><tr><td style="font-weight:bold;vertical-align:top;">domain</td><td style="vertical-align:top;">:</td><td><div></div></td></tr><tr><td style="font-weight:bold;vertical-align:top;">expires</td><td style="vertical-align:top;">:</td><td><div></div></td></tr><tr><td style="font-weight:bold;vertical-align:top;">httponly</td><td style="vertical-align:top;">:</td><td><div></div></td></tr><tr><td style="font-weight:bold;vertical-align:top;">max-age</td><td style="vertical-align:top;">:</td><td><div></div></td></tr><tr><td style="font-weight:bold;vertical-align:top;">path</td><td style="vertical-align:top;">:</td><td><div></div></td></tr><tr><td style="font-weight:bold;vertical-align:top;">secure</td><td style="vertical-align:top;">:</td><td><div></div></td></tr><tr><td style="font-weight:bold;vertical-align:top;">version</td><td style="vertical-align:top;">:</td><td><div></div></td></tr></table></div></td></tr><tr><td style="font-weight:bold;vertical-align:top;">session_id_welcome</td><td style="vertical-align:top;">:</td><td><div>127.0.0.1-37bb1be4-a527-40f9-a7f6-9f5ee0370df5<table><tr><td style="font-weight:bold;vertical-align:top;">comment</td><td style="vertical-align:top;">:</td><td><div></div></td></tr><tr><td style="font-weight:bold;vertical-align:top;">domain</td><td style="vertical-align:top;">:</td><td><div></div></td></tr><tr><td style="font-weight:bold;vertical-align:top;">expires</td><td style="vertical-align:top;">:</td><td><div></div></td></tr><tr><td style="font-weight:bold;vertical-align:top;">httponly</td><td style="vertical-align:top;">:</td><td><div></div></td></tr><tr><td style="font-weight:bold;vertical-align:top;">max-age</td><td style="vertical-align:top;">:</td><td><div></div></td></tr><tr><td style="font-weight:bold;vertical-align:top;">path</td><td style="vertical-align:top;">:</td><td><div></div></td></tr><tr><td style="font-weight:bold;vertical-align:top;">secure</td><td style="vertical-align:top;">:</td><td><div></div></td></tr><tr><td style="font-weight:bold;vertical-align:top;">version</td><td style="vertical-align:top;">:</td><td><div></div></td></tr></table></div></td></tr></table></div></td></tr><tr><td style="font-weight:bold;vertical-align:top;">env</td><td style="vertical-align:top;">:</td><td><div><table><tr><td style="font-weight:bold;vertical-align:top;">HTTP_ACCEPT</td><td style="vertical-align:top;">:</td><td><div>text/html,application/xhtml+xml,application/xml;q=0.9,*/*;q=0.8</div></td></tr><tr><td style="font-weight:bold;vertical-align:top;">HTTP_ACCEPT_ENCODING</td><td style="vertical-align:top;">:</td><td><div>gzip, deflate</div></td></tr><tr><td style="font-weight:bold;vertical-align:top;">HTTP_ACCEPT_LANGUAGE</td><td style="vertical-align:top;">:</td><td><div>en-US,en;q=0.5</div></td></tr><tr><td style="font-weight:bold;vertical-align:top;">HTTP_CACHE_CONTROL</td><td style="vertical-align:top;">:</td><td><div>max-age=0</div></td></tr><tr><td style="font-weight:bold;vertical-align:top;">HTTP_CONNECTION</td><td style="vertical-align:top;">:</td><td><div>keep-alive</div></td></tr><tr><td style="font-weight:bold;vertical-align:top;">HTTP_COOKIE</td><td style="vertical-align:top;">:</td><td><div>session_id_welcome=127.0.0.1-37bb1be4-a527-40f9-a7f6-9f5ee0370df5; session_id_admin=127.0.0.1-c756ff97-7200-4506-841a-76fc99388c68; session_id_thinker=127.0.0.1-c924d9fc-fc52-4144-a3ec-da37c4f5300d</div></td></tr><tr><td style="font-weight:bold;vertical-align:top;">HTTP_HOST</td><td style="vertical-align:top;">:</td><td><div>127.0.0.1:8000</div></td></tr><tr><td style="font-weight:bold;vertical-align:top;">HTTP_USER_AGENT</td><td style="vertical-align:top;">:</td><td><div>Mozilla/5.0 (Macintosh; Intel Mac OS X 10.7; rv:24.0) Gecko/20100101 Firefox/24.0</div></td></tr><tr><td style="font-weight:bold;vertical-align:top;">PATH_INFO</td><td style="vertical-align:top;">:</td><td><div>/dynalog/default/index</div></td></tr><tr><td style="font-weight:bold;vertical-align:top;">QUERY_STRING</td><td style="vertical-align:top;">:</td><td><div></div></td></tr><tr><td style="font-weight:bold;vertical-align:top;">REMOTE_ADDR</td><td style="vertical-align:top;">:</td><td><div>127.0.0.1</div></td></tr><tr><td style="font-weight:bold;vertical-align:top;">REMOTE_PORT</td><td style="vertical-align:top;">:</td><td><div>64479</div></td></tr><tr><td style="font-weight:bold;vertical-align:top;">REQUEST_METHOD</td><td style="vertical-align:top;">:</td><td><div>GET</div></td></tr><tr><td style="font-weight:bold;vertical-align:top;">SCRIPT_NAME</td><td style="vertical-align:top;">:</td><td><div></div></td></tr><tr><td style="font-weight:bold;vertical-align:top;">SERVER_NAME</td><td style="vertical-align:top;">:</td><td><div>mephistopheles</div></td></tr><tr><td style="font-weight:bold;vertical-align:top;">SERVER_PORT</td><td style="vertical-align:top;">:</td><td><div>8000</div></td></tr><tr><td style="font-weight:bold;vertical-align:top;">SERVER_PROTOCOL</td><td style="vertical-align:top;">:</td><td><div>HTTP/1.1</div></td></tr><tr><td style="font-weight:bold;vertical-align:top;">SERVER_SOFTWARE</td><td style="vertical-align:top;">:</td><td><div>Rocket 1.2.6</div></td></tr><tr><td style="font-weight:bold;vertical-align:top;">app_folders</td><td style="vertical-align:top;">:</td><td><div>set([&#x27;/Users/jean-paulmccoy/web2py/applications/dynalog/&#x27;, &#x27;/Users/jean-paulmccoy/web2py/applications/admin/&#x27;, &#x27;/Users/jean-paulmccoy/web2py/applications/thinker/&#x27;, &#x27;/Users/jean-paulmccoy/web2py/applications/welcome/&#x27;])</div></td></tr><tr><td style="font-weight:bold;vertical-align:top;">applications_parent</td><td style="vertical-align:top;">:</td><td><div>/Users/jean-paulmccoy/web2py</div></td></tr><tr><td style="font-weight:bold;vertical-align:top;">cmd_args</td><td style="vertical-align:top;">:</td><td><div><table></table></div></td></tr><tr><td style="font-weight:bold;vertical-align:top;">cmd_options</td><td style="vertical-align:top;">:</td><td><div>&lt;Values at 0x1032d8e18: {&#x27;verbose&#x27;: False, &#x27;ip&#x27;: &#x27;127.0.0.1&#x27;, &#x27;debuglevel&#x27;: 30, &#x27;with_scheduler&#x27;: False, &#x27;ips&#x27;: [], &#x27;shutdown_timeout&#x27;: 5, &#x27;taskbar&#x27;: False, &#x27;with_coverage&#x27;: False, &#x27;port&#x27;: 8000, &#x27;maxthreads&#x27;: None, &#x27;softcron&#x27;: False, &#x27;server_name&#x27;: &#x27;mephistopheles&#x27;, &#x27;bpython&#x27;: False, &#x27;nogui&#x27;: False, &#x27;pid_filename&#x27;: &#x27;httpserver.pid&#x27;, &#x27;extcron&#x27;: False, &#x27;runcron&#x27;: False, &#x27;run_system_tests&#x27;: False, &#x27;test&#x27;: None, &#x27;folder&#x27;: &#x27;/Users/jean-paulmccoy/web2py&#x27;, &#x27;config&#x27;: &#x27;&#x27;, &#x27;minthreads&#x27;: None, &#x27;winservice&#x27;: &#x27;&#x27;, &#x27;shell&#x27;: None, &#x27;run&#x27;: &#x27;&#x27;, &#x27;log_filename&#x27;: &#x27;httpserver.log&#x27;, &#x27;profiler_dir&#x27;: None, &#x27;args&#x27;: [&#x27;&#x27;], &#x27;socket_timeout&#x27;: 5, &#x27;ssl_ca_certificate&#x27;: None, &#x27;scheduler&#x27;: None, &#x27;interfaces&#x27;: None, &#x27;ssl_private_key&#x27;: &#x27;&#x27;, &#x27;scheduler_groups&#x27;: None, &#x27;password&#x27;: &#x27;&lt;ask&gt;&#x27;, &#x27;request_queue_size&#x27;: 5, &#x27;ssl_certificate&#x27;: &#x27;&#x27;, &#x27;cronjob&#x27;: False, &#x27;numthreads&#x27;: None, &#x27;quiet&#x27;: False, &#x27;import_models&#x27;: False, &#x27;timeout&#x27;: 10, &#x27;plain&#x27;: False, &#x27;nobanner&#x27;: False}&gt;</div></td></tr><tr><td style="font-weight:bold;vertical-align:top;">db_sessions</td><td style="vertical-align:top;">:</td><td><div>set([])</div></td></tr><tr><td style="font-weight:bold;vertical-align:top;">debugging</td><td style="vertical-align:top;">:</td><td><div>False</div></td></tr><tr><td style="font-weight:bold;vertical-align:top;">gluon_parent</td><td style="vertical-align:top;">:</td><td><div>/Users/jean-paulmccoy/web2py</div></td></tr><tr><td style="font-weight:bold;vertical-align:top;">http_accept</td><td style="vertical-align:top;">:</td><td><div>text/html,application/xhtml+xml,application/xml;q=0.9,*/*;q=0.8</div></td></tr><tr><td style="font-weight:bold;vertical-align:top;">http_accept_encoding</td><td style="vertical-align:top;">:</td><td><div>gzip, deflate</div></td></tr><tr><td style="font-weight:bold;vertical-align:top;">http_accept_language</td><td style="vertical-align:top;">:</td><td><div>en-US,en;q=0.5</div></td></tr><tr><td style="font-weight:bold;vertical-align:top;">http_cache_control</td><td style="vertical-align:top;">:</td><td><div>max-age=0</div></td></tr><tr><td style="font-weight:bold;vertical-align:top;">http_connection</td><td style="vertical-align:top;">:</td><td><div>keep-alive</div></td></tr><tr><td style="font-weight:bold;vertical-align:top;">http_cookie</td><td style="vertical-align:top;">:</td><td><div>session_id_welcome=127.0.0.1-37bb1be4-a527-40f9-a7f6-9f5ee0370df5; session_id_admin=127.0.0.1-c756ff97-7200-4506-841a-76fc99388c68; session_id_thinker=127.0.0.1-c924d9fc-fc52-4144-a3ec-da37c4f5300d</div></td></tr><tr><td style="font-weight:bold;vertical-align:top;">http_host</td><td style="vertical-align:top;">:</td><td><div>127.0.0.1:8000</div></td></tr><tr><td style="font-weight:bold;vertical-align:top;">http_user_agent</td><td style="vertical-align:top;">:</td><td><div>Mozilla/5.0 (Macintosh; Intel Mac OS X 10.7; rv:24.0) Gecko/20100101 Firefox/24.0</div></td></tr><tr><td style="font-weight:bold;vertical-align:top;">is_jython</td><td style="vertical-align:top;">:</td><td><div>False</div></td></tr><tr><td style="font-weight:bold;vertical-align:top;">is_pypy</td><td style="vertical-align:top;">:</td><td><div>False</div></td></tr><tr><td style="font-weight:bold;vertical-align:top;">is_source</td><td style="vertical-align:top;">:</td><td><div>True</div></td></tr><tr><td style="font-weight:bold;vertical-align:top;">local_hosts</td><td style="vertical-align:top;">:</td><td><div><table><tr><td><div>192.168.1.85</div></td></tr><tr><td><div>mephistopheles</div></td></tr><tr><td><div>::ffff:127.0.0.1</div></td></tr><tr><td><div>::1</div></td></tr><tr><td><div>127.0.0.1</div></td></tr><tr><td><div>85.1.168.192.in-addr.arpa</div></td></tr></table></div></td></tr><tr><td style="font-weight:bold;vertical-align:top;">path_info</td><td style="vertical-align:top;">:</td><td><div>/dynalog/default/index</div></td></tr><tr><td style="font-weight:bold;vertical-align:top;">query_string</td><td style="vertical-align:top;">:</td><td><div></div></td></tr><tr><td style="font-weight:bold;vertical-align:top;">remote_addr</td><td style="vertical-align:top;">:</td><td><div>127.0.0.1</div></td></tr><tr><td style="font-weight:bold;vertical-align:top;">remote_port</td><td style="vertical-align:top;">:</td><td><div>64479</div></td></tr><tr><td style="font-weight:bold;vertical-align:top;">request_method</td><td style="vertical-align:top;">:</td><td><div>GET</div></td></tr><tr><td style="font-weight:bold;vertical-align:top;">request_uri</td><td style="vertical-align:top;">:</td><td><div>/dynalog/default/index</div></td></tr><tr><td style="font-weight:bold;vertical-align:top;">script_name</td><td style="vertical-align:top;">:</td><td><div></div></td></tr><tr><td style="font-weight:bold;vertical-align:top;">server_name</td><td style="vertical-align:top;">:</td><td><div>mephistopheles</div></td></tr><tr><td style="font-weight:bold;vertical-align:top;">server_port</td><td style="vertical-align:top;">:</td><td><div>8000</div></td></tr><tr><td style="font-weight:bold;vertical-align:top;">server_protocol</td><td style="vertical-align:top;">:</td><td><div>HTTP/1.1</div></td></tr><tr><td style="font-weight:bold;vertical-align:top;">server_software</td><td style="vertical-align:top;">:</td><td><div>Rocket 1.2.6</div></td></tr><tr><td style="font-weight:bold;vertical-align:top;">web2py_path</td><td style="vertical-align:top;">:</td><td><div>/Users/jean-paulmccoy/web2py</div></td></tr><tr><td style="font-weight:bold;vertical-align:top;">web2py_version</td><td style="vertical-align:top;">:</td><td><div>2.7.4-stable+timestamp.2013.10.14.15.16.29</div></td></tr><tr><td style="font-weight:bold;vertical-align:top;">wsgi.errors</td><td style="vertical-align:top;">:</td><td><div>&lt;open file &#x27;&lt;stderr&gt;&#x27;, mode &#x27;w&#x27; at 0x102518270&gt;</div></td></tr><tr><td style="font-weight:bold;vertical-align:top;">wsgi.file_wrapper</td><td style="vertical-align:top;">:</td><td><div>&lt;class wsgiref.util.FileWrapper at 0x102ff0ae0&gt;</div></td></tr><tr><td style="font-weight:bold;vertical-align:top;">wsgi.input</td><td style="vertical-align:top;">:</td><td><div>&lt;socket._fileobject object at 0x107a93450&gt;</div></td></tr><tr><td style="font-weight:bold;vertical-align:top;">wsgi.multiprocess</td><td style="vertical-align:top;">:</td><td><div>False</div></td></tr><tr><td style="font-weight:bold;vertical-align:top;">wsgi.multithread</td><td style="vertical-align:top;">:</td><td><div>True</div></td></tr><tr><td style="font-weight:bold;vertical-align:top;">wsgi.run_once</td><td style="vertical-align:top;">:</td><td><div>False</div></td></tr><tr><td style="font-weight:bold;vertical-align:top;">wsgi.url_scheme</td><td style="vertical-align:top;">:</td><td><div>http</div></td></tr><tr><td style="font-weight:bold;vertical-align:top;">wsgi.version</td><td style="vertical-align:top;">:</td><td><div><table><tr><td><div>1</div></td></tr><tr><td><div>0</div></td></tr></table></div></td></tr><tr><td style="font-weight:bold;vertical-align:top;">wsgi_errors</td><td style="vertical-align:top;">:</td><td><div>&lt;open file &#x27;&lt;stderr&gt;&#x27;, mode &#x27;w&#x27; at 0x102518270&gt;</div></td></tr><tr><td style="font-weight:bold;vertical-align:top;">wsgi_file_wrapper</td><td style="vertical-align:top;">:</td><td><div>&lt;class wsgiref.util.FileWrapper at 0x102ff0ae0&gt;</div></td></tr><tr><td style="font-weight:bold;vertical-align:top;">wsgi_input</td><td style="vertical-align:top;">:</td><td><div>&lt;socket._fileobject object at 0x107a93450&gt;</div></td></tr><tr><td style="font-weight:bold;vertical-align:top;">wsgi_multiprocess</td><td style="vertical-align:top;">:</td><td><div>False</div></td></tr><tr><td style="font-weight:bold;vertical-align:top;">wsgi_multithread</td><td style="vertical-align:top;">:</td><td><div>True</div></td></tr><tr><td style="font-weight:bold;vertical-align:top;">wsgi_run_once</td><td style="vertical-align:top;">:</td><td><div>False</div></td></tr><tr><td style="font-weight:bold;vertical-align:top;">wsgi_url_scheme</td><td style="vertical-align:top;">:</td><td><div>http</div></td></tr><tr><td style="font-weight:bold;vertical-align:top;">wsgi_version</td><td style="vertical-align:top;">:</td><td><div><table><tr><td><div>1</div></td></tr><tr><td><div>0</div></td></tr></table></div></td></tr></table></div></td></tr><tr><td style="font-weight:bold;vertical-align:top;">extension</td><td style="vertical-align:top;">:</td><td><div>html</div></td></tr><tr><td style="font-weight:bold;vertical-align:top;">folder</td><td style="vertical-align:top;">:</td><td><div>/Users/jean-paulmccoy/web2py/applications/dynalog/</div></td></tr><tr><td style="font-weight:bold;vertical-align:top;">function</td><td style="vertical-align:top;">:</td><td><div>index</div></td></tr><tr><td style="font-weight:bold;vertical-align:top;">global_settings</td><td style="vertical-align:top;">:</td><td><div><table><tr><td style="font-weight:bold;vertical-align:top;">app_folders</td><td style="vertical-align:top;">:</td><td><div>set([&#x27;/Users/jean-paulmccoy/web2py/applications/dynalog/&#x27;, &#x27;/Users/jean-paulmccoy/web2py/applications/admin/&#x27;, &#x27;/Users/jean-paulmccoy/web2py/applications/thinker/&#x27;, &#x27;/Users/jean-paulmccoy/web2py/applications/welcome/&#x27;])</div></td></tr><tr><td style="font-weight:bold;vertical-align:top;">applications_parent</td><td style="vertical-align:top;">:</td><td><div>/Users/jean-paulmccoy/web2py</div></td></tr><tr><td style="font-weight:bold;vertical-align:top;">cmd_args</td><td style="vertical-align:top;">:</td><td><div><table></table></div></td></tr><tr><td style="font-weight:bold;vertical-align:top;">cmd_options</td><td style="vertical-align:top;">:</td><td><div>&lt;Values at 0x1032d8e18: {&#x27;verbose&#x27;: False, &#x27;ip&#x27;: &#x27;127.0.0.1&#x27;, &#x27;debuglevel&#x27;: 30, &#x27;with_scheduler&#x27;: False, &#x27;ips&#x27;: [], &#x27;shutdown_timeout&#x27;: 5, &#x27;taskbar&#x27;: False, &#x27;with_coverage&#x27;: False, &#x27;port&#x27;: 8000, &#x27;maxthreads&#x27;: None, &#x27;softcron&#x27;: False, &#x27;server_name&#x27;: &#x27;mephistopheles&#x27;, &#x27;bpython&#x27;: False, &#x27;nogui&#x27;: False, &#x27;pid_filename&#x27;: &#x27;httpserver.pid&#x27;, &#x27;extcron&#x27;: False, &#x27;runcron&#x27;: False, &#x27;run_system_tests&#x27;: False, &#x27;test&#x27;: None, &#x27;folder&#x27;: &#x27;/Users/jean-paulmccoy/web2py&#x27;, &#x27;config&#x27;: &#x27;&#x27;, &#x27;minthreads&#x27;: None, &#x27;winservice&#x27;: &#x27;&#x27;, &#x27;shell&#x27;: None, &#x27;run&#x27;: &#x27;&#x27;, &#x27;log_filename&#x27;: &#x27;httpserver.log&#x27;, &#x27;profiler_dir&#x27;: None, &#x27;args&#x27;: [&#x27;&#x27;], &#x27;socket_timeout&#x27;: 5, &#x27;ssl_ca_certificate&#x27;: None, &#x27;scheduler&#x27;: None, &#x27;interfaces&#x27;: None, &#x27;ssl_private_key&#x27;: &#x27;&#x27;, &#x27;scheduler_groups&#x27;: None, &#x27;password&#x27;: &#x27;&lt;ask&gt;&#x27;, &#x27;request_queue_size&#x27;: 5, &#x27;ssl_certificate&#x27;: &#x27;&#x27;, &#x27;cronjob&#x27;: False, &#x27;numthreads&#x27;: None, &#x27;quiet&#x27;: False, &#x27;import_models&#x27;: False, &#x27;timeout&#x27;: 10, &#x27;plain&#x27;: False, &#x27;nobanner&#x27;: False}&gt;</div></td></tr><tr><td style="font-weight:bold;vertical-align:top;">db_sessions</td><td style="vertical-align:top;">:</td><td><div>set([])</div></td></tr><tr><td style="font-weight:bold;vertical-align:top;">debugging</td><td style="vertical-align:top;">:</td><td><div>False</div></td></tr><tr><td style="font-weight:bold;vertical-align:top;">gluon_parent</td><td style="vertical-align:top;">:</td><td><div>/Users/jean-paulmccoy/web2py</div></td></tr><tr><td style="font-weight:bold;vertical-align:top;">is_jython</td><td style="vertical-align:top;">:</td><td><div>False</div></td></tr><tr><td style="font-weight:bold;vertical-align:top;">is_pypy</td><td style="vertical-align:top;">:</td><td><div>False</div></td></tr><tr><td style="font-weight:bold;vertical-align:top;">is_source</td><td style="vertical-align:top;">:</td><td><div>True</div></td></tr><tr><td style="font-weight:bold;vertical-align:top;">local_hosts</td><td style="vertical-align:top;">:</td><td><div><table><tr><td><div>192.168.1.85</div></td></tr><tr><td><div>mephistopheles</div></td></tr><tr><td><div>::ffff:127.0.0.1</div></td></tr><tr><td><div>::1</div></td></tr><tr><td><div>127.0.0.1</div></td></tr><tr><td><div>85.1.168.192.in-addr.arpa</div></td></tr></table></div></td></tr><tr><td style="font-weight:bold;vertical-align:top;">web2py_version</td><td style="vertical-align:top;">:</td><td><div>2.7.4-stable+timestamp.2013.10.14.15.16.29</div></td></tr></table></div></td></tr><tr><td style="font-weight:bold;vertical-align:top;">is_https</td><td style="vertical-align:top;">:</td><td><div>False</div></td></tr><tr><td style="font-weight:bold;vertical-align:top;">is_local</td><td style="vertical-align:top;">:</td><td><div>True</div></td></tr><tr><td style="font-weight:bold;vertical-align:top;">is_restful</td><td style="vertical-align:top;">:</td><td><div>False</div></td></tr><tr><td style="font-weight:bold;vertical-align:top;">now</td><td style="vertical-align:top;">:</td><td><div>datetime.datetime(2013, 11, 5, 3, 5, 41, 698425)</div></td></tr><tr><td style="font-weight:bold;vertical-align:top;">raw_args</td><td style="vertical-align:top;">:</td><td><div></div></td></tr><tr><td style="font-weight:bold;vertical-align:top;">raw_extension</td><td style="vertical-align:top;">:</td><td><div>None</div></td></tr><tr><td style="font-weight:bold;vertical-align:top;">url</td><td style="vertical-align:top;">:</td><td><div>/dynalog/default/index</div></td></tr><tr><td style="font-weight:bold;vertical-align:top;">utcnow</td><td style="vertical-align:top;">:</td><td><div>datetime.datetime(2013, 11, 5, 11, 5, 41, 698443)</div></td></tr><tr><td style="font-weight:bold;vertical-align:top;">uuid</td><td style="vertical-align:top;">:</td><td><div>dynalog/127.0.0.1.2013-11-05.03-05-41.fec6f21e-d0a0-42bb-a28a-4b715ab7ede2</div></td></tr><tr><td style="font-weight:bold;vertical-align:top;">wsgi</td><td style="vertical-align:top;">:</td><td><div>&lt;gluon.main.LazyWSGI object at 0x107ee2550&gt;</div></td></tr></table></div>'
tRp70
sS'frames'
p71
(lp72
(dp73
S'file'
p74
S'/Users/jean-paulmccoy/web2py/gluon/restricted.py'
p75
sS'dump'
p76
(dp77
S'environment'
p78
S"{'A': <class 'gluon.html.A'>, 'ANY_OF': <class 'gluon.validators.ANY_OF'>, 'Auth': <class 'gluon.tools.Auth'>, 'B': <class 'gluon.html.B'>, 'BEAUTIFY': <class 'gluon.html.BEAUTIFY'>, 'BODY': <class 'gluon.html.BODY'>, 'BR': <class 'gluon.html.BR'>, 'BUTTON': <class 'gluon.html.BUTTON'>, 'CAT': <class 'gluon.html.CAT'>, 'CENTER': <class 'gluon.html.CENTER'>, ...}"
p79
sS'ccode'
p80
S'<code object <module> at 0x107a05ab0, file "/Use...eb2py/applications/dynalog/models/db.py", line 1>'
p81
ssS'lnum'
p82
I217
sS'lines'
p83
(dp84
I212
S'    try:'
p85
sI213
S'        if isinstance(code, types.CodeType):'
p86
sI214
S'            ccode = code'
p87
sI215
S'        else:'
p88
sI216
S'            ccode = compile2(code, layer)'
p89
sI217
S'        exec ccode in environment'
p90
sI218
S'    except HTTP:'
p91
sI219
S'        raise'
p92
sI220
S'    except RestrictedError:'
p93
sI221
S'        # do not encapsulate (obfuscate) the original RestrictedError'
p94
ssS'call'
p95
S'(code="db = DAL(\'sqlite://storage.sqlite\')\\n\\nfrom gluon....adable = db.document.created_on.writable = False\\n", environment={\'A\': <class \'gluon.html.A\'>, \'ANY_OF\': <class \'gluon.validators.ANY_OF\'>, \'Auth\': <class \'gluon.tools.Auth\'>, \'B\': <class \'gluon.html.B\'>, \'BEAUTIFY\': <class \'gluon.html.BEAUTIFY\'>, \'BODY\': <class \'gluon.html.BODY\'>, \'BR\': <class \'gluon.html.BR\'>, \'BUTTON\': <class \'gluon.html.BUTTON\'>, \'CAT\': <class \'gluon.html.CAT\'>, \'CENTER\': <class \'gluon.html.CENTER\'>, ...}, layer=\'/Users/jean-paulmccoy/web2py/applications/dynalog/models/db.py\')'
p96
sS'func'
p97
S'restricted'
p98
sa(dp99
g74
S'/Users/jean-paulmccoy/web2py/applications/dynalog/models/db.py'
p100
sg76
(dp101
S'Field'
p102
S"<class 'gluon.dal.Field'>"
p103
ssg82
I11
sg83
(dp104
I6
S'crud = Crud(db)'
p105
sI7
S''
sI8
S"db.define_table('thread',"
p106
sI9
S"    Field('title'),"
p107
sI10
S"    Field('type'),"
p108
sI11
S"    Field('nodes' 'list: reference node'),"
p109
sI12
S"    Field('rooted_on', 'datetime', default=request.now),"
p110
sI13
S"    Field('created_by', 'reference auth_user', default=auth.user_id),"
p111
sI14
S"    format='%(title)s')"
p112
sI15
S''
ssg95
S'()'
p113
sg97
S'<module>'
p114
sa(dp115
g74
S'/Users/jean-paulmccoy/web2py/gluon/dal.py'
p116
sg76
(dp117
S'fieldname'
p118
S"'nodeslist: reference node'"
p119
sS'self'
p120
S'<gluon.dal.Field object>'
p121
sS'self.name'
p122
S'undefined'
p123
sS'global cleanup'
p124
S'<function cleanup>'
p125
ssg82
I9514
sg83
(dp126
I9509
S'        if isinstance(fieldname, unicode):'
p127
sI9510
S'            try:'
p128
sI9511
S'                fieldname = str(fieldname)'
p129
sI9512
S'            except UnicodeEncodeError:'
p130
sI9513
S"                raise SyntaxError('Field: invalid unicode field name')"
p131
sI9514
S'        self.name = fieldname = cleanup(fieldname)'
p132
sI9515
S'        if not isinstance(fieldname, str) or hasattr(Table, fieldname) or \\'
p133
sI9516
S"                fieldname[0] == '_' or REGEX_PYTHON_KEYWORDS.match(fieldname):"
p134
sI9517
S"            raise SyntaxError('Field: invalid field name: %s' % fieldname)"
p135
sI9518
S"        self.type = type if not isinstance(type, (Table,Field)) else 'reference %s' % type"
p136
ssg95
S"(self=<gluon.dal.Field object>, fieldname='nodeslist: reference node', type='string', length=None, default=<function <lambda>>, required=False, requires=<function <lambda>>, ondelete='CASCADE', notnull=False, unique=False, uploadfield=True, widget=None, label=None, comment=None, writable=True, readable=True, update=None, authorize=None, autodelete=False, represent=None, uploadfolder=None, uploadseparate=False, uploadfs=None, compute=None, custom_store=None, custom_retrieve=None, custom_retrieve_file_properties=None, custom_delete=None, filter_in=None, filter_out=None, custom_qualifier=None, map_none=None)"
p137
sg97
g24
sa(dp138
g74
S'/Users/jean-paulmccoy/web2py/gluon/dal.py'
p139
sg76
(dp140
S'text'
p141
S"'nodeslist: reference node'"
p142
sS'builtinSyntaxError'
p143
S"<type 'exceptions.SyntaxError'>"
p144
ssg82
I5248
sg83
(dp145
I5248
S"        raise SyntaxError('invalid table or field name: %s' % text)"
p146
sI5249
S'    return text'
p147
sI5250
S''
sI5251
S'class MongoDBAdapter(NoSQLAdapter):'
p148
sI5252
S'    native_json = True'
p149
sI5243
S'def cleanup(text):'
p150
sI5244
S'    """'
p151
sI5245
S'    validates that the given text is clean: only contains [0-9a-zA-Z_]'
p152
sI5246
S'    """'
p153
sI5247
S'    if not REGEX_ALPHANUMERIC.match(text):'
p154
ssg95
S"(text='nodeslist: reference node')"
p155
sg97
S'cleanup'
p156
sasS'pyver'
p157
S'Python 2.7.1: /usr/bin/python (prefix: /System/Library/Frameworks/Python.framework/Versions/2.7)'
p158
sS'session'
p159
g69
(S's\x1a\x00\x00\x00<div><table></table></div>'
tRp160
sS'etype'
p161
S"<type 'exceptions.SyntaxError'>"
p162
sS'date'
p163
S'Tue Nov  5 03:05:41 2013'
p164
sS'response'
p165
g69
(S's\x85\x15\x00\x00<div><table><tr><td style="font-weight:bold;vertical-align:top;">body</td><td style="vertical-align:top;">:</td><td><div>&lt;cStringIO.StringO object at 0x107f019d0&gt;</div></td></tr><tr><td style="font-weight:bold;vertical-align:top;">cookies</td><td style="vertical-align:top;">:</td><td><div><table><tr><td style="font-weight:bold;vertical-align:top;">session_id_dynalog</td><td style="vertical-align:top;">:</td><td><div>127.0.0.1-6213a2eb-fa04-4075-b4c1-eee1fbbce750<table><tr><td style="font-weight:bold;vertical-align:top;">comment</td><td style="vertical-align:top;">:</td><td><div></div></td></tr><tr><td style="font-weight:bold;vertical-align:top;">domain</td><td style="vertical-align:top;">:</td><td><div></div></td></tr><tr><td style="font-weight:bold;vertical-align:top;">expires</td><td style="vertical-align:top;">:</td><td><div></div></td></tr><tr><td style="font-weight:bold;vertical-align:top;">httponly</td><td style="vertical-align:top;">:</td><td><div></div></td></tr><tr><td style="font-weight:bold;vertical-align:top;">max-age</td><td style="vertical-align:top;">:</td><td><div></div></td></tr><tr><td style="font-weight:bold;vertical-align:top;">path</td><td style="vertical-align:top;">:</td><td><div>/</div></td></tr><tr><td style="font-weight:bold;vertical-align:top;">secure</td><td style="vertical-align:top;">:</td><td><div></div></td></tr><tr><td style="font-weight:bold;vertical-align:top;">version</td><td style="vertical-align:top;">:</td><td><div></div></td></tr></table></div></td></tr></table></div></td></tr><tr><td style="font-weight:bold;vertical-align:top;">delimiters</td><td style="vertical-align:top;">:</td><td><div><table><tr><td><div>{{</div></td></tr><tr><td><div>}}</div></td></tr></table></div></td></tr><tr><td style="font-weight:bold;vertical-align:top;">files</td><td style="vertical-align:top;">:</td><td><div><table></table></div></td></tr><tr><td style="font-weight:bold;vertical-align:top;">flash</td><td style="vertical-align:top;">:</td><td><div></div></td></tr><tr><td style="font-weight:bold;vertical-align:top;">generic_patterns</td><td style="vertical-align:top;">:</td><td><div><table></table></div></td></tr><tr><td style="font-weight:bold;vertical-align:top;">headers</td><td style="vertical-align:top;">:</td><td><div><table><tr><td style="font-weight:bold;vertical-align:top;">X-Powered-By</td><td style="vertical-align:top;">:</td><td><div>web2py</div></td></tr></table></div></td></tr><tr><td style="font-weight:bold;vertical-align:top;">menu</td><td style="vertical-align:top;">:</td><td><div><table></table></div></td></tr><tr><td style="font-weight:bold;vertical-align:top;">meta</td><td style="vertical-align:top;">:</td><td><div><table></table></div></td></tr><tr><td style="font-weight:bold;vertical-align:top;">models_to_run</td><td style="vertical-align:top;">:</td><td><div><table><tr><td><div>^\\w+\\.py$</div></td></tr><tr><td><div>^default/\\w+\\.py$</div></td></tr><tr><td><div>^default/index/\\w+\\.py$</div></td></tr></table></div></td></tr><tr><td style="font-weight:bold;vertical-align:top;">postprocessing</td><td style="vertical-align:top;">:</td><td><div><table></table></div></td></tr><tr><td style="font-weight:bold;vertical-align:top;">session_client</td><td style="vertical-align:top;">:</td><td><div>127.0.0.1</div></td></tr><tr><td style="font-weight:bold;vertical-align:top;">session_cookie_compression_level</td><td style="vertical-align:top;">:</td><td><div>None</div></td></tr><tr><td style="font-weight:bold;vertical-align:top;">session_cookie_expires</td><td style="vertical-align:top;">:</td><td><div>None</div></td></tr><tr><td style="font-weight:bold;vertical-align:top;">session_cookie_key</td><td style="vertical-align:top;">:</td><td><div>None</div></td></tr><tr><td style="font-weight:bold;vertical-align:top;">session_data_name</td><td style="vertical-align:top;">:</td><td><div>session_data_dynalog</div></td></tr><tr><td style="font-weight:bold;vertical-align:top;">session_file</td><td style="vertical-align:top;">:</td><td><div>None</div></td></tr><tr><td style="font-weight:bold;vertical-align:top;">session_filename</td><td style="vertical-align:top;">:</td><td><div>/Users/jean-paulmccoy/web2py/applications/dynalog/sessions/127.0.0.1-6213a2eb-fa04-4075-b4c1-eee1fbbce750</div></td></tr><tr><td style="font-weight:bold;vertical-align:top;">session_hash</td><td style="vertical-align:top;">:</td><td><div>106f4c22ca06cc343e42b73a0d8492f6</div></td></tr><tr><td style="font-weight:bold;vertical-align:top;">session_id</td><td style="vertical-align:top;">:</td><td><div>127.0.0.1-6213a2eb-fa04-4075-b4c1-eee1fbbce750</div></td></tr><tr><td style="font-weight:bold;vertical-align:top;">session_id_name</td><td style="vertical-align:top;">:</td><td><div>session_id_dynalog</div></td></tr><tr><td style="font-weight:bold;vertical-align:top;">session_masterapp</td><td style="vertical-align:top;">:</td><td><div>dynalog</div></td></tr><tr><td style="font-weight:bold;vertical-align:top;">session_new</td><td style="vertical-align:top;">:</td><td><div>True</div></td></tr><tr><td style="font-weight:bold;vertical-align:top;">session_storage_type</td><td style="vertical-align:top;">:</td><td><div>file</div></td></tr><tr><td style="font-weight:bold;vertical-align:top;">status</td><td style="vertical-align:top;">:</td><td><div>200</div></td></tr><tr><td style="font-weight:bold;vertical-align:top;">view</td><td style="vertical-align:top;">:</td><td><div>default/index.html</div></td></tr></table></div>'
tRp166
sS'locals'
p167
(dp168
g14
S"'nodeslist: reference node'"
p169
sssS'traceback'
p170
S'Traceback (most recent call last):\n  File "/Users/jean-paulmccoy/web2py/gluon/restricted.py", line 217, in restricted\n    exec ccode in environment\n  File "/Users/jean-paulmccoy/web2py/applications/dynalog/models/db.py", line 11, in <module>\n    Field(\'nodes\' \'list: reference node\'),\n  File "/Users/jean-paulmccoy/web2py/gluon/dal.py", line 9514, in __init__\n    self.name = fieldname = cleanup(fieldname)\n  File "/Users/jean-paulmccoy/web2py/gluon/dal.py", line 5248, in cleanup\n    raise SyntaxError(\'invalid table or field name: %s\' % text)\nSyntaxError: invalid table or field name: nodeslist: reference node\n'
p171
s.